target datalayout = "e-m:e-p270:32:32-p271:32:32-p272:64:64-i64:64-i128:128-f80:128-n8:16:32:64-S128"
target triple = "x86_64-pc-linux-gnu"

%struct.grpc_resolved_address = type { [128 x i8], i32 }
%"struct.std::_Rb_tree_const_iterator" = type { ptr }
%"class.grpc_core::EndpointAddressSet" = type { %"class.std::set" }
%"class.std::set" = type { %"class.std::_Rb_tree" }
%"class.std::_Rb_tree" = type { %"struct.std::_Rb_tree<grpc_resolved_address, grpc_resolved_address, std::_Identity<grpc_resolved_address>, grpc_core::ResolvedAddressLessThan>::_Rb_tree_impl" }
%"struct.std::_Rb_tree<grpc_resolved_address, grpc_resolved_address, std::_Identity<grpc_resolved_address>, grpc_core::ResolvedAddressLessThan>::_Rb_tree_impl" = type { [8 x i8], %"struct.std::_Rb_tree_header" }
%"struct.std::_Rb_tree_header" = type { %"struct.std::_Rb_tree_node_base", i64 }
%"struct.std::_Rb_tree_node_base" = type { i32, ptr, ptr, ptr }
%"struct.std::_Rb_tree_node" = type <{ %"struct.std::_Rb_tree_node_base", %"struct.__gnu_cxx::__aligned_membuf", [4 x i8] }>
%"struct.__gnu_cxx::__aligned_membuf" = type { [132 x i8] }

; Function Attrs: mustprogress nounwind uwtable
define linkonce_odr noundef ptr @_ZNK9__gnu_cxx16__aligned_membufI21grpc_resolved_addressE7_M_addrEv(ptr noundef nonnull align 4 dereferenceable(132) %0) #6 comdat align 2 {
  %2 = alloca ptr, align 8
  store ptr %0, ptr %2, align 8, !tbaa !183
  %3 = load ptr, ptr %2, align 8
  %4 = getelementptr inbounds nuw %"struct.__gnu_cxx::__aligned_membuf", ptr %3, i32 0, i32 0
  ret ptr %4
}

; Function Attrs: mustprogress nounwind uwtable
define linkonce_odr noundef ptr @_ZNK9__gnu_cxx16__aligned_membufI21grpc_resolved_addressE6_M_ptrEv(ptr noundef nonnull align 4 dereferenceable(132) %0) #6 comdat align 2 {
  %2 = alloca ptr, align 8
  store ptr %0, ptr %2, align 8, !tbaa !183
  %3 = load ptr, ptr %2, align 8
  %4 = call noundef ptr @_ZNK9__gnu_cxx16__aligned_membufI21grpc_resolved_addressE7_M_addrEv(ptr noundef nonnull align 4 dereferenceable(132) %3) #3
  ret ptr %4
}

; Function Attrs: mustprogress nounwind uwtable
define linkonce_odr void @_ZNSt23_Rb_tree_const_iteratorI21grpc_resolved_addressEC2EPKSt18_Rb_tree_node_base(ptr noundef nonnull align 8 dereferenceable(8) %0, ptr noundef %1) unnamed_addr #6 comdat align 2 {
  %3 = alloca ptr, align 8
  %4 = alloca ptr, align 8
  store ptr %0, ptr %3, align 8, !tbaa !81
  store ptr %1, ptr %4, align 8, !tbaa !180
  %5 = load ptr, ptr %3, align 8
  %6 = getelementptr inbounds nuw %"struct.std::_Rb_tree_const_iterator", ptr %5, i32 0, i32 0
  %7 = load ptr, ptr %4, align 8, !tbaa !180
  store ptr %7, ptr %6, align 8, !tbaa !83
  ret void
}

; Function Attrs: noinline noreturn nounwind uwtable
define linkonce_odr hidden void @__clang_call_terminate(ptr noundef %0) #13 comdat {
  %2 = call ptr @__cxa_begin_catch(ptr %0) #3
  call void @_ZSt9terminatev() #19
  unreachable
}

; Function Attrs: mustprogress nounwind uwtable
define linkonce_odr noundef ptr @_ZNKSt13_Rb_tree_nodeI21grpc_resolved_addressE9_M_valptrEv(ptr noundef nonnull align 8 dereferenceable(164) %0) #6 comdat align 2 {
  %2 = alloca ptr, align 8
  store ptr %0, ptr %2, align 8, !tbaa !181
  %3 = load ptr, ptr %2, align 8
  %4 = getelementptr inbounds nuw %"struct.std::_Rb_tree_node", ptr %3, i32 0, i32 1
  %5 = call noundef ptr @_ZNK9__gnu_cxx16__aligned_membufI21grpc_resolved_addressE6_M_ptrEv(ptr noundef nonnull align 4 dereferenceable(132) %4) #3
  ret ptr %5
}

; Function Attrs: mustprogress nounwind uwtable
define linkonce_odr ptr @_ZNKSt8_Rb_treeI21grpc_resolved_addressS0_St9_IdentityIS0_EN9grpc_core23ResolvedAddressLessThanESaIS0_EE3endEv(ptr noundef nonnull align 8 dereferenceable(48) %0) #6 comdat align 2 {
  %2 = alloca %"struct.std::_Rb_tree_const_iterator", align 8
  %3 = alloca ptr, align 8
  store ptr %0, ptr %3, align 8, !tbaa !173
  %4 = load ptr, ptr %3, align 8
  %5 = getelementptr inbounds nuw %"class.std::_Rb_tree", ptr %4, i32 0, i32 0
  %6 = getelementptr inbounds i8, ptr %5, i64 8
  %7 = getelementptr inbounds nuw %"struct.std::_Rb_tree_header", ptr %6, i32 0, i32 0
  call void @_ZNSt23_Rb_tree_const_iteratorI21grpc_resolved_addressEC2EPKSt18_Rb_tree_node_base(ptr noundef nonnull align 8 dereferenceable(8) %2, ptr noundef %7) #3
  %8 = getelementptr inbounds nuw %"struct.std::_Rb_tree_const_iterator", ptr %2, i32 0, i32 0
  %9 = load ptr, ptr %8, align 8
  ret ptr %9
}

; Function Attrs: mustprogress nounwind uwtable
define linkonce_odr ptr @_ZNKSt8_Rb_treeI21grpc_resolved_addressS0_St9_IdentityIS0_EN9grpc_core23ResolvedAddressLessThanESaIS0_EE5beginEv(ptr noundef nonnull align 8 dereferenceable(48) %0) #6 comdat align 2 {
  %2 = alloca %"struct.std::_Rb_tree_const_iterator", align 8
  %3 = alloca ptr, align 8
  store ptr %0, ptr %3, align 8, !tbaa !173
  %4 = load ptr, ptr %3, align 8
  %5 = getelementptr inbounds nuw %"class.std::_Rb_tree", ptr %4, i32 0, i32 0
  %6 = getelementptr inbounds i8, ptr %5, i64 8
  %7 = getelementptr inbounds nuw %"struct.std::_Rb_tree_header", ptr %6, i32 0, i32 0
  %8 = getelementptr inbounds nuw %"struct.std::_Rb_tree_node_base", ptr %7, i32 0, i32 2
  %9 = load ptr, ptr %8, align 8, !tbaa !179
  call void @_ZNSt23_Rb_tree_const_iteratorI21grpc_resolved_addressEC2EPKSt18_Rb_tree_node_base(ptr noundef nonnull align 8 dereferenceable(8) %2, ptr noundef %9) #3
  %10 = getelementptr inbounds nuw %"struct.std::_Rb_tree_const_iterator", ptr %2, i32 0, i32 0
  %11 = load ptr, ptr %10, align 8
  ret ptr %11
}

; Function Attrs: mustprogress nounwind uwtable
define linkonce_odr noundef nonnull align 8 dereferenceable(8) ptr @_ZNSt23_Rb_tree_const_iteratorI21grpc_resolved_addressEppEv(ptr noundef nonnull align 8 dereferenceable(8) %0) #6 comdat align 2 {
  %2 = alloca ptr, align 8
  store ptr %0, ptr %2, align 8, !tbaa !81
  %3 = load ptr, ptr %2, align 8
  %4 = getelementptr inbounds nuw %"struct.std::_Rb_tree_const_iterator", ptr %3, i32 0, i32 0
  %5 = load ptr, ptr %4, align 8, !tbaa !83
  %6 = call noundef ptr @_ZSt18_Rb_tree_incrementPKSt18_Rb_tree_node_base(ptr noundef %5) #21
  %7 = getelementptr inbounds nuw %"struct.std::_Rb_tree_const_iterator", ptr %3, i32 0, i32 0
  store ptr %6, ptr %7, align 8, !tbaa !83
  ret ptr %3
}

; Function Attrs: mustprogress nounwind uwtable
define linkonce_odr noundef ptr @_ZNKSt23_Rb_tree_const_iteratorI21grpc_resolved_addressEptEv(ptr noundef nonnull align 8 dereferenceable(8) %0) #6 comdat align 2 personality ptr @__gxx_personality_v0 {
  %2 = alloca ptr, align 8
  store ptr %0, ptr %2, align 8, !tbaa !81
  %3 = load ptr, ptr %2, align 8
  %4 = getelementptr inbounds nuw %"struct.std::_Rb_tree_const_iterator", ptr %3, i32 0, i32 0
  %5 = load ptr, ptr %4, align 8, !tbaa !83
  %6 = invoke noundef ptr @_ZNKSt13_Rb_tree_nodeI21grpc_resolved_addressE9_M_valptrEv(ptr noundef nonnull align 8 dereferenceable(164) %5)
          to label %7 unwind label %8

7:                                                ; preds = %1
  ret ptr %6

8:                                                ; preds = %1
  %9 = landingpad { ptr, i32 }
          catch ptr null
  %10 = extractvalue { ptr, i32 } %9, 0
  call void @__clang_call_terminate(ptr %10) #19
  unreachable
}

; Function Attrs: mustprogress nounwind uwtable
define linkonce_odr noundef zeroext i1 @_ZSteqRKSt23_Rb_tree_const_iteratorI21grpc_resolved_addressES3_(ptr noundef nonnull align 8 dereferenceable(8) %0, ptr noundef nonnull align 8 dereferenceable(8) %1) #6 comdat {
  %3 = alloca ptr, align 8
  %4 = alloca ptr, align 8
  store ptr %0, ptr %3, align 8, !tbaa !81
  store ptr %1, ptr %4, align 8, !tbaa !81
  %5 = load ptr, ptr %3, align 8, !tbaa !81
  %6 = getelementptr inbounds nuw %"struct.std::_Rb_tree_const_iterator", ptr %5, i32 0, i32 0
  %7 = load ptr, ptr %6, align 8, !tbaa !83
  %8 = load ptr, ptr %4, align 8, !tbaa !81
  %9 = getelementptr inbounds nuw %"struct.std::_Rb_tree_const_iterator", ptr %8, i32 0, i32 0
  %10 = load ptr, ptr %9, align 8, !tbaa !83
  %11 = icmp eq ptr %7, %10
  ret i1 %11
}

; Function Attrs: mustprogress nounwind uwtable
define linkonce_odr noundef zeroext i1 @_ZStneRKSt23_Rb_tree_const_iteratorI21grpc_resolved_addressES3_(ptr noundef nonnull align 8 dereferenceable(8) %0, ptr noundef nonnull align 8 dereferenceable(8) %1) #6 comdat {
  %3 = alloca ptr, align 8
  %4 = alloca ptr, align 8
  store ptr %0, ptr %3, align 8, !tbaa !81
  store ptr %1, ptr %4, align 8, !tbaa !81
  %5 = load ptr, ptr %3, align 8, !tbaa !81
  %6 = getelementptr inbounds nuw %"struct.std::_Rb_tree_const_iterator", ptr %5, i32 0, i32 0
  %7 = load ptr, ptr %6, align 8, !tbaa !83
  %8 = load ptr, ptr %4, align 8, !tbaa !81
  %9 = getelementptr inbounds nuw %"struct.std::_Rb_tree_const_iterator", ptr %8, i32 0, i32 0
  %10 = load ptr, ptr %9, align 8, !tbaa !83
  %11 = icmp ne ptr %7, %10
  ret i1 %11
}

; Function Attrs: mustprogress nounwind uwtable
define linkonce_odr ptr @_ZNKSt3setI21grpc_resolved_addressN9grpc_core23ResolvedAddressLessThanESaIS0_EE3endEv(ptr noundef nonnull align 8 dereferenceable(48) %0) #6 comdat align 2 {
  %2 = alloca %"struct.std::_Rb_tree_const_iterator", align 8
  %3 = alloca ptr, align 8
  store ptr %0, ptr %3, align 8, !tbaa !79
  %4 = load ptr, ptr %3, align 8
  %5 = getelementptr inbounds nuw %"class.std::set", ptr %4, i32 0, i32 0
  %6 = call ptr @_ZNKSt8_Rb_treeI21grpc_resolved_addressS0_St9_IdentityIS0_EN9grpc_core23ResolvedAddressLessThanESaIS0_EE3endEv(ptr noundef nonnull align 8 dereferenceable(48) %5) #3
  %7 = getelementptr inbounds nuw %"struct.std::_Rb_tree_const_iterator", ptr %2, i32 0, i32 0
  store ptr %6, ptr %7, align 8
  %8 = getelementptr inbounds nuw %"struct.std::_Rb_tree_const_iterator", ptr %2, i32 0, i32 0
  %9 = load ptr, ptr %8, align 8
  ret ptr %9
}

; Function Attrs: mustprogress nounwind uwtable
define linkonce_odr ptr @_ZNKSt3setI21grpc_resolved_addressN9grpc_core23ResolvedAddressLessThanESaIS0_EE5beginEv(ptr noundef nonnull align 8 dereferenceable(48) %0) #6 comdat align 2 {
  %2 = alloca %"struct.std::_Rb_tree_const_iterator", align 8
  %3 = alloca ptr, align 8
  store ptr %0, ptr %3, align 8, !tbaa !79
  %4 = load ptr, ptr %3, align 8
  %5 = getelementptr inbounds nuw %"class.std::set", ptr %4, i32 0, i32 0
  %6 = call ptr @_ZNKSt8_Rb_treeI21grpc_resolved_addressS0_St9_IdentityIS0_EN9grpc_core23ResolvedAddressLessThanESaIS0_EE5beginEv(ptr noundef nonnull align 8 dereferenceable(48) %5) #3
  %7 = getelementptr inbounds nuw %"struct.std::_Rb_tree_const_iterator", ptr %2, i32 0, i32 0
  store ptr %6, ptr %7, align 8
  %8 = getelementptr inbounds nuw %"struct.std::_Rb_tree_const_iterator", ptr %2, i32 0, i32 0
  %9 = load ptr, ptr %8, align 8
  ret ptr %9
}

; Function Attrs: mustprogress nounwind uwtable
define noundef zeroext i1 @_ZNK9grpc_core18EndpointAddressSetltERKS0_(ptr noundef nonnull align 8 dereferenceable(48) %0, ptr noundef nonnull align 8 dereferenceable(48) %1) #6 align 2 {
  %3 = alloca i1, align 1
  %4 = alloca ptr, align 8
  %5 = alloca ptr, align 8
  %6 = alloca %"struct.std::_Rb_tree_const_iterator", align 8
  %7 = alloca %"struct.std::_Rb_tree_const_iterator", align 8
  %8 = alloca %"struct.std::_Rb_tree_const_iterator", align 8
  %9 = alloca i32, align 4
  %10 = alloca %"struct.std::_Rb_tree_const_iterator", align 8
  %11 = alloca i32, align 4
  %12 = alloca %"struct.std::_Rb_tree_const_iterator", align 8
  store ptr %0, ptr %4, align 8, !tbaa !76
  store ptr %1, ptr %5, align 8, !tbaa !76
  %13 = load ptr, ptr %4, align 8
  call void @llvm.lifetime.start.p0(i64 8, ptr %6) #3
  %14 = load ptr, ptr %5, align 8, !tbaa !76
  %15 = getelementptr inbounds nuw %"class.grpc_core::EndpointAddressSet", ptr %14, i32 0, i32 0
  %16 = call ptr @_ZNKSt3setI21grpc_resolved_addressN9grpc_core23ResolvedAddressLessThanESaIS0_EE5beginEv(ptr noundef nonnull align 8 dereferenceable(48) %15) #3
  %17 = getelementptr inbounds nuw %"struct.std::_Rb_tree_const_iterator", ptr %6, i32 0, i32 0
  store ptr %16, ptr %17, align 8
  call void @llvm.lifetime.start.p0(i64 8, ptr %7) #3
  %18 = getelementptr inbounds nuw %"class.grpc_core::EndpointAddressSet", ptr %13, i32 0, i32 0
  %19 = call ptr @_ZNKSt3setI21grpc_resolved_addressN9grpc_core23ResolvedAddressLessThanESaIS0_EE5beginEv(ptr noundef nonnull align 8 dereferenceable(48) %18) #3
  %20 = getelementptr inbounds nuw %"struct.std::_Rb_tree_const_iterator", ptr %7, i32 0, i32 0
  store ptr %19, ptr %20, align 8
  br label %21

21:                                               ; preds = %74, %2
  call void @llvm.lifetime.start.p0(i64 8, ptr %8) #3
  %22 = getelementptr inbounds nuw %"class.grpc_core::EndpointAddressSet", ptr %13, i32 0, i32 0
  %23 = call ptr @_ZNKSt3setI21grpc_resolved_addressN9grpc_core23ResolvedAddressLessThanESaIS0_EE3endEv(ptr noundef nonnull align 8 dereferenceable(48) %22) #3
  %24 = getelementptr inbounds nuw %"struct.std::_Rb_tree_const_iterator", ptr %8, i32 0, i32 0
  store ptr %23, ptr %24, align 8
  %25 = call noundef zeroext i1 @_ZStneRKSt23_Rb_tree_const_iteratorI21grpc_resolved_addressES3_(ptr noundef nonnull align 8 dereferenceable(8) %7, ptr noundef nonnull align 8 dereferenceable(8) %8) #3
  call void @llvm.lifetime.end.p0(i64 8, ptr %8) #3
  br i1 %25, label %27, label %26

26:                                               ; preds = %21
  store i32 2, ptr %9, align 4
  br label %76

27:                                               ; preds = %21
  call void @llvm.lifetime.start.p0(i64 8, ptr %10) #3
  %28 = load ptr, ptr %5, align 8, !tbaa !76
  %29 = getelementptr inbounds nuw %"class.grpc_core::EndpointAddressSet", ptr %28, i32 0, i32 0
  %30 = call ptr @_ZNKSt3setI21grpc_resolved_addressN9grpc_core23ResolvedAddressLessThanESaIS0_EE3endEv(ptr noundef nonnull align 8 dereferenceable(48) %29) #3
  %31 = getelementptr inbounds nuw %"struct.std::_Rb_tree_const_iterator", ptr %10, i32 0, i32 0
  store ptr %30, ptr %31, align 8
  %32 = call noundef zeroext i1 @_ZSteqRKSt23_Rb_tree_const_iteratorI21grpc_resolved_addressES3_(ptr noundef nonnull align 8 dereferenceable(8) %6, ptr noundef nonnull align 8 dereferenceable(8) %10) #3
  call void @llvm.lifetime.end.p0(i64 8, ptr %10) #3
  br i1 %32, label %33, label %34

33:                                               ; preds = %27
  store i1 false, ptr %3, align 1
  store i32 1, ptr %9, align 4
  br label %76

34:                                               ; preds = %27
  %35 = call noundef ptr @_ZNKSt23_Rb_tree_const_iteratorI21grpc_resolved_addressEptEv(ptr noundef nonnull align 8 dereferenceable(8) %7) #3
  %36 = getelementptr inbounds nuw %struct.grpc_resolved_address, ptr %35, i32 0, i32 1
  %37 = load i32, ptr %36, align 4, !tbaa !37
  %38 = call noundef ptr @_ZNKSt23_Rb_tree_const_iteratorI21grpc_resolved_addressEptEv(ptr noundef nonnull align 8 dereferenceable(8) %6) #3
  %39 = getelementptr inbounds nuw %struct.grpc_resolved_address, ptr %38, i32 0, i32 1
  %40 = load i32, ptr %39, align 4, !tbaa !37
  %41 = icmp ult i32 %37, %40
  br i1 %41, label %42, label %43

42:                                               ; preds = %34
  store i1 true, ptr %3, align 1
  store i32 1, ptr %9, align 4
  br label %76

43:                                               ; preds = %34
  %44 = call noundef ptr @_ZNKSt23_Rb_tree_const_iteratorI21grpc_resolved_addressEptEv(ptr noundef nonnull align 8 dereferenceable(8) %7) #3
  %45 = getelementptr inbounds nuw %struct.grpc_resolved_address, ptr %44, i32 0, i32 1
  %46 = load i32, ptr %45, align 4, !tbaa !37
  %47 = call noundef ptr @_ZNKSt23_Rb_tree_const_iteratorI21grpc_resolved_addressEptEv(ptr noundef nonnull align 8 dereferenceable(8) %6) #3
  %48 = getelementptr inbounds nuw %struct.grpc_resolved_address, ptr %47, i32 0, i32 1
  %49 = load i32, ptr %48, align 4, !tbaa !37
  %50 = icmp ugt i32 %46, %49
  br i1 %50, label %51, label %52

51:                                               ; preds = %43
  store i1 false, ptr %3, align 1
  store i32 1, ptr %9, align 4
  br label %76

52:                                               ; preds = %43
  call void @llvm.lifetime.start.p0(i64 4, ptr %11) #3
  %53 = call noundef ptr @_ZNKSt23_Rb_tree_const_iteratorI21grpc_resolved_addressEptEv(ptr noundef nonnull align 8 dereferenceable(8) %7) #3
  %54 = getelementptr inbounds nuw %struct.grpc_resolved_address, ptr %53, i32 0, i32 0
  %55 = getelementptr inbounds [128 x i8], ptr %54, i64 0, i64 0
  %56 = call noundef ptr @_ZNKSt23_Rb_tree_const_iteratorI21grpc_resolved_addressEptEv(ptr noundef nonnull align 8 dereferenceable(8) %6) #3
  %57 = getelementptr inbounds nuw %struct.grpc_resolved_address, ptr %56, i32 0, i32 0
  %58 = getelementptr inbounds [128 x i8], ptr %57, i64 0, i64 0
  %59 = call noundef ptr @_ZNKSt23_Rb_tree_const_iteratorI21grpc_resolved_addressEptEv(ptr noundef nonnull align 8 dereferenceable(8) %7) #3
  %60 = getelementptr inbounds nuw %struct.grpc_resolved_address, ptr %59, i32 0, i32 1
  %61 = load i32, ptr %60, align 4, !tbaa !37
  %62 = zext i32 %61 to i64
  %63 = call i32 @memcmp(ptr noundef %55, ptr noundef %58, i64 noundef %62) #21
  store i32 %63, ptr %11, align 4, !tbaa !40
  %64 = load i32, ptr %11, align 4, !tbaa !40
  %65 = icmp ne i32 %64, 0
  br i1 %65, label %66, label %69

66:                                               ; preds = %52
  %67 = load i32, ptr %11, align 4, !tbaa !40
  %68 = icmp slt i32 %67, 0
  store i1 %68, ptr %3, align 1
  store i32 1, ptr %9, align 4
  br label %71

69:                                               ; preds = %52
  %70 = call noundef nonnull align 8 dereferenceable(8) ptr @_ZNSt23_Rb_tree_const_iteratorI21grpc_resolved_addressEppEv(ptr noundef nonnull align 8 dereferenceable(8) %6) #3
  store i32 0, ptr %9, align 4
  br label %71

71:                                               ; preds = %69, %66
  call void @llvm.lifetime.end.p0(i64 4, ptr %11) #3
  %72 = load i32, ptr %9, align 4
  switch i32 %72, label %76 [
    i32 0, label %73
  ]

73:                                               ; preds = %71
  br label %74

74:                                               ; preds = %73
  %75 = call noundef nonnull align 8 dereferenceable(8) ptr @_ZNSt23_Rb_tree_const_iteratorI21grpc_resolved_addressEppEv(ptr noundef nonnull align 8 dereferenceable(8) %7) #3
  br label %21, !llvm.loop !86

76:                                               ; preds = %71, %51, %42, %33, %26
  call void @llvm.lifetime.end.p0(i64 8, ptr %7) #3
  %77 = load i32, ptr %9, align 4
  switch i32 %77, label %84 [
    i32 2, label %78
  ]

78:                                               ; preds = %76
  call void @llvm.lifetime.start.p0(i64 8, ptr %12) #3
  %79 = load ptr, ptr %5, align 8, !tbaa !76
  %80 = getelementptr inbounds nuw %"class.grpc_core::EndpointAddressSet", ptr %79, i32 0, i32 0
  %81 = call ptr @_ZNKSt3setI21grpc_resolved_addressN9grpc_core23ResolvedAddressLessThanESaIS0_EE3endEv(ptr noundef nonnull align 8 dereferenceable(48) %80) #3
  %82 = getelementptr inbounds nuw %"struct.std::_Rb_tree_const_iterator", ptr %12, i32 0, i32 0
  store ptr %81, ptr %82, align 8
  %83 = call noundef zeroext i1 @_ZStneRKSt23_Rb_tree_const_iteratorI21grpc_resolved_addressES3_(ptr noundef nonnull align 8 dereferenceable(8) %6, ptr noundef nonnull align 8 dereferenceable(8) %12) #3
  store i1 %83, ptr %3, align 1
  call void @llvm.lifetime.end.p0(i64 8, ptr %12) #3
  store i32 1, ptr %9, align 4
  br label %84

84:                                               ; preds = %78, %76
  call void @llvm.lifetime.end.p0(i64 8, ptr %6) #3
  %85 = load i1, ptr %3, align 1
  ret i1 %85
}