; Function Attrs: mustprogress nofree nounwind willreturn memory(read) uwtable
define noundef zeroext i1 @_ZNK9grpc_core18EndpointAddressSetltERKS0_(ptr noundef nonnull readonly align 8 dereferenceable(48) %0, ptr noundef nonnull readonly align 8 dereferenceable(48) %1) local_unnamed_addr #10 align 2 personality ptr @__gxx_personality_v0 {
  %3 = getelementptr inbounds nuw i8, ptr %1, i64 24
  %4 = load ptr, ptr %3, align 8, !tbaa !79
  %5 = getelementptr inbounds nuw i8, ptr %0, i64 24
  %6 = load ptr, ptr %5, align 8, !tbaa !79
  %7 = getelementptr inbounds nuw i8, ptr %0, i64 8
  %.not3336 = icmp eq ptr %6, %7
  br i1 %.not3336, label %._crit_edge, label %.lr.ph

.lr.ph:                                           ; preds = %2
  %8 = getelementptr inbounds nuw i8, ptr %1, i64 8
  br label %9

9:                                                ; preds = %.lr.ph, %26
  %.sroa.020.038 = phi ptr [ %4, %.lr.ph ], [ %27, %26 ]
  %.sroa.014.037 = phi ptr [ %6, %.lr.ph ], [ %28, %26 ]
  %10 = icmp eq ptr %.sroa.020.038, %8
  br i1 %10, label %.thread30, label %11

11:                                               ; preds = %9
  %12 = getelementptr inbounds nuw i8, ptr %.sroa.014.037, i64 32
  %13 = getelementptr inbounds nuw i8, ptr %.sroa.014.037, i64 160
  %14 = load i32, ptr %13, align 4, !tbaa !19
  %15 = getelementptr inbounds nuw i8, ptr %.sroa.020.038, i64 32
  %16 = getelementptr inbounds nuw i8, ptr %.sroa.020.038, i64 160
  %17 = load i32, ptr %16, align 4, !tbaa !19
  %18 = icmp ult i32 %14, %17
  br i1 %18, label %.thread30, label %19

19:                                               ; preds = %11
  %20 = icmp ugt i32 %14, %17
  br i1 %20, label %.thread30, label %21

21:                                               ; preds = %19
  %22 = zext i32 %14 to i64
  %23 = tail call i32 @memcmp(ptr noundef nonnull %12, ptr noundef nonnull %15, i64 noundef %22) #31
  %.not = icmp eq i32 %23, 0
  br i1 %.not, label %26, label %24

24:                                               ; preds = %21
  %25 = icmp slt i32 %23, 0
  br label %.thread30

26:                                               ; preds = %21
  %27 = tail call noundef ptr @_ZSt18_Rb_tree_incrementPKSt18_Rb_tree_node_base(ptr noundef nonnull %.sroa.020.038) #31
  %28 = tail call noundef ptr @_ZSt18_Rb_tree_incrementPKSt18_Rb_tree_node_base(ptr noundef nonnull %.sroa.014.037) #31
  %.not33 = icmp eq ptr %28, %7
  br i1 %.not33, label %._crit_edge, label %9, !llvm.loop !81

._crit_edge:                                      ; preds = %26, %2
  %.sroa.020.0.lcssa = phi ptr [ %4, %2 ], [ %27, %26 ]
  %29 = getelementptr inbounds nuw i8, ptr %1, i64 8
  %30 = icmp ne ptr %.sroa.020.0.lcssa, %29
  br label %.thread30

.thread30:                                        ; preds = %9, %11, %19, %24, %._crit_edge
  %.3 = phi i1 [ %30, %._crit_edge ], [ %25, %24 ], [ false, %9 ], [ true, %11 ], [ false, %19 ]
  ret i1 %.3
}